target datalayout = "e-m:e-p270:32:32-p271:32:32-p272:64:64-i64:64-i128:128-f80:128-n8:16:32:64-S128"
target triple = "x86_64-pc-linux-gnu"

%struct.hf_register_info = type { ptr, %struct._header_field_info }
%struct._header_field_info = type { ptr, ptr, i32, i32, ptr, i64, ptr, i32, i32, i32, i32, ptr }
%struct._value_string = type { i32, ptr }

@proto_register_frame.hf_encap = internal global %struct.hf_register_info { ptr @hf_frame_wtap_encap, %struct._header_field_info { ptr @.str.300, ptr @.str.301, i32 13, i32 1, ptr null, i64 0, ptr null, i32 -1, i32 0, i32 0, i32 -1, ptr null } }, align 8
@proto_register_frame.ett = internal global [10 x ptr] [ptr @ett_frame, ptr @ett_ifname, ptr @ett_flags, ptr @ett_comments, ptr @ett_hash, ptr @ett_verdict, ptr @ett_bblog, ptr @ett_bblog_event_flags, ptr @ett_bblog_t_flags, ptr @ett_bblog_t_flags2], align 16
@.str.310 = private unnamed_addr constant [6 x i8] c"Frame\00", align 1
@.str.311 = private unnamed_addr constant [6 x i8] c"frame\00", align 1
@proto_frame = internal global i32 0, align 4
@.str.312 = private unnamed_addr constant [16 x i8] c"Packet comments\00", align 1
@.str.313 = private unnamed_addr constant [12 x i8] c"Pkt_Comment\00", align 1
@.str.314 = private unnamed_addr constant [12 x i8] c"pkt_comment\00", align 1
@proto_pkt_comment = internal global i32 0, align 4
@.str.315 = private unnamed_addr constant [12 x i8] c"System Call\00", align 1
@.str.316 = private unnamed_addr constant [8 x i8] c"Syscall\00", align 1
@.str.317 = private unnamed_addr constant [8 x i8] c"syscall\00", align 1
@proto_syscall = internal global i32 0, align 4
@.str.318 = private unnamed_addr constant [6 x i8] c"bblog\00", align 1
@proto_bblog = internal global i32 0, align 4
@.str.319 = private unnamed_addr constant [11 x i8] c"wtap_encap\00", align 1
@.str.320 = private unnamed_addr constant [27 x i8] c"Wiretap encapsulation type\00", align 1
@wtap_encap_dissector_table = internal global ptr null, align 8
@.str.321 = private unnamed_addr constant [13 x i8] c"wtap_fts_rec\00", align 1
@.str.322 = private unnamed_addr constant [49 x i8] c"Wiretap file type for file-type-specific records\00", align 1
@wtap_fts_rec_dissector_table = internal global ptr null, align 8
@.str.323 = private unnamed_addr constant [20 x i8] c"pcapng_custom_block\00", align 1
@.str.324 = private unnamed_addr constant [24 x i8] c"PcapNG custom block PEN\00", align 1
@block_pen_dissector_table = internal global ptr null, align 8
@.str.325 = private unnamed_addr constant [4 x i8] c"any\00", align 1
@.str.326 = private unnamed_addr constant [10 x i8] c"All Flows\00", align 1
@.str.327 = private unnamed_addr constant [14 x i8] c"show_file_off\00", align 1
@.str.328 = private unnamed_addr constant [17 x i8] c"Show File Offset\00", align 1
@.str.329 = private unnamed_addr constant [37 x i8] c"Show offset of frame in capture file\00", align 1
@show_file_off = internal global i8 0, align 1
@.str.330 = private unnamed_addr constant [19 x i8] c"force_docsis_encap\00", align 1
@.str.331 = private unnamed_addr constant [34 x i8] c"Treat all frames as DOCSIS frames\00", align 1
@.str.332 = private unnamed_addr constant [34 x i8] c"Treat all frames as DOCSIS Frames\00", align 1
@force_docsis_encap = internal global i8 0, align 1
@.str.333 = private unnamed_addr constant [18 x i8] c"generate_md5_hash\00", align 1
@.str.334 = private unnamed_addr constant [35 x i8] c"Generate an MD5 hash of each frame\00", align 1
@.str.335 = private unnamed_addr constant [99 x i8] c"Whether or not MD5 hashes should be generated for each frame, useful for finding duplicate frames.\00", align 1
@generate_md5_hash = internal global i8 0, align 1
@.str.336 = private unnamed_addr constant [20 x i8] c"generate_epoch_time\00", align 1
@.str.337 = private unnamed_addr constant [20 x i8] c"generate_bits_field\00", align 1
@.str.338 = private unnamed_addr constant [37 x i8] c"Show the number of bits in the frame\00", align 1
@.str.339 = private unnamed_addr constant [64 x i8] c"Whether or not the number of bits in the frame should be shown.\00", align 1
@generate_bits_field = internal global i8 1, align 1
@.str.340 = private unnamed_addr constant [39 x i8] c"disable_packet_size_limited_in_summary\00", align 1
@.str.341 = private unnamed_addr constant [64 x i8] c"Disable 'packet size limited during capture' message in summary\00", align 1
@.str.342 = private unnamed_addr constant [85 x i8] c"Whether or not 'packet size limited during capture' message in shown in Info column.\00", align 1
@disable_packet_size_limited_in_summary = internal global i8 0, align 1
@.str.343 = private unnamed_addr constant [18 x i8] c"max_comment_lines\00", align 1
@.str.344 = private unnamed_addr constant [58 x i8] c"Maximum number of lines to display for one packet comment\00", align 1
@.str.345 = private unnamed_addr constant [97 x i8] c"Show at most this many lines of a multi-line packet comment (applied separately to each comment)\00", align 1
@max_comment_lines = internal global i32 30, align 4
@frame_tap = internal global i32 0, align 4

; Function Attrs: null_pointer_is_valid sspstrong uwtable
define hidden void @proto_register_frame() #0 {
  %1 = alloca ptr, align 8
  %2 = alloca ptr, align 8
  %3 = alloca i32, align 4
  %4 = alloca ptr, align 8
  %5 = alloca i32, align 4
  call void @llvm.lifetime.start.p0(i64 8, ptr %1) #9
  call void @llvm.lifetime.start.p0(i64 8, ptr %2) #9
  %6 = load ptr, ptr getelementptr inbounds nuw (%struct._header_field_info, ptr getelementptr inbounds nuw (%struct.hf_register_info, ptr @proto_register_frame.hf_encap, i32 0, i32 1), i32 0, i32 4), align 8
  %7 = icmp eq ptr %6, null
  br i1 %7, label %8, label %61

8:                                                ; preds = %0
  call void @llvm.lifetime.start.p0(i64 4, ptr %3) #9
  %9 = call i32 @wtap_get_num_encap_types()
  store i32 %9, ptr %3, align 4
  call void @llvm.lifetime.start.p0(i64 8, ptr %4) #9
  call void @llvm.lifetime.start.p0(i64 4, ptr %5) #9
  %10 = call ptr @wmem_epan_scope()
  %11 = load i32, ptr %3, align 4
  %12 = add i32 %11, 1
  %13 = icmp sle i32 %12, 0
  br i1 %13, label %20, label %14

14:                                               ; preds = %8
  %15 = load i32, ptr %3, align 4
  %16 = add i32 %15, 1
  %17 = sext i32 %16 to i64
  %18 = udiv i64 9223372036854775807, %17
  %19 = icmp ugt i64 16, %18
  br i1 %19, label %20, label %21

20:                                               ; preds = %14, %8
  br label %26

21:                                               ; preds = %14
  %22 = load i32, ptr %3, align 4
  %23 = add i32 %22, 1
  %24 = sext i32 %23 to i64
  %25 = mul i64 16, %24
  br label %26

26:                                               ; preds = %21, %20
  %27 = phi i64 [ 0, %20 ], [ %25, %21 ]
  %28 = call noalias ptr @wmem_alloc(ptr noundef %10, i64 noundef %27) #10
  store ptr %28, ptr %4, align 8
  store ptr %28, ptr getelementptr inbounds nuw (%struct._header_field_info, ptr getelementptr inbounds nuw (%struct.hf_register_info, ptr @proto_register_frame.hf_encap, i32 0, i32 1), i32 0, i32 4), align 8
  store i32 0, ptr %5, align 4
  br label %29

29:                                               ; preds = %47, %26
  %30 = load i32, ptr %5, align 4
  %31 = load i32, ptr %3, align 4
  %32 = icmp slt i32 %30, %31
  br i1 %32, label %33, label %50

33:                                               ; preds = %29
  %34 = load i32, ptr %5, align 4
  %35 = load ptr, ptr %4, align 8
  %36 = load i32, ptr %5, align 4
  %37 = sext i32 %36 to i64
  %38 = getelementptr %struct._value_string, ptr %35, i64 %37
  %39 = getelementptr inbounds nuw %struct._value_string, ptr %38, i32 0, i32 0
  store i32 %34, ptr %39, align 8
  %40 = load i32, ptr %5, align 4
  %41 = call ptr @wtap_encap_description(i32 noundef %40)
  %42 = load ptr, ptr %4, align 8
  %43 = load i32, ptr %5, align 4
  %44 = sext i32 %43 to i64
  %45 = getelementptr %struct._value_string, ptr %42, i64 %44
  %46 = getelementptr inbounds nuw %struct._value_string, ptr %45, i32 0, i32 1
  store ptr %41, ptr %46, align 8
  br label %47

47:                                               ; preds = %33
  %48 = load i32, ptr %5, align 4
  %49 = add i32 %48, 1
  store i32 %49, ptr %5, align 4
  br label %29, !llvm.loop !6

50:                                               ; preds = %29
  %51 = load ptr, ptr %4, align 8
  %52 = load i32, ptr %3, align 4
  %53 = sext i32 %52 to i64
  %54 = getelementptr %struct._value_string, ptr %51, i64 %53
  %55 = getelementptr inbounds nuw %struct._value_string, ptr %54, i32 0, i32 0
  store i32 0, ptr %55, align 8
  %56 = load ptr, ptr %4, align 8
  %57 = load i32, ptr %3, align 4
  %58 = sext i32 %57 to i64
  %59 = getelementptr %struct._value_string, ptr %56, i64 %58
  %60 = getelementptr inbounds nuw %struct._value_string, ptr %59, i32 0, i32 1
  store ptr null, ptr %60, align 8
  call void @llvm.lifetime.end.p0(i64 4, ptr %5) #9
  call void @llvm.lifetime.end.p0(i64 8, ptr %4) #9
  call void @llvm.lifetime.end.p0(i64 4, ptr %3) #9
  br label %61

61:                                               ; preds = %50, %0
  %62 = call i32 @proto_register_protocol(ptr noundef @.str.310, ptr noundef @.str.310, ptr noundef @.str.311)
  store i32 %62, ptr @proto_frame, align 4
  %63 = load i32, ptr @proto_frame, align 4
  %64 = call i32 @proto_register_protocol_in_name_only(ptr noundef @.str.312, ptr noundef @.str.313, ptr noundef @.str.314, i32 noundef %63, i32 noundef 1)
  store i32 %64, ptr @proto_pkt_comment, align 4
  %65 = call i32 @proto_register_protocol(ptr noundef @.str.315, ptr noundef @.str.316, ptr noundef @.str.317)
  store i32 %65, ptr @proto_syscall, align 4
  %66 = call i32 @proto_get_id_by_filter_name(ptr noundef @.str.318)
  store i32 %66, ptr @proto_bblog, align 4
  %67 = load i32, ptr @proto_frame, align 4
  call void @proto_register_field_array(i32 noundef %67, ptr noundef @proto_register_frame.hf, i32 noundef 141)
  %68 = load i32, ptr @proto_frame, align 4
  call void @proto_register_field_array(i32 noundef %68, ptr noundef @proto_register_frame.hf_encap, i32 noundef 1)
  call void @proto_register_subtree_array(ptr noundef @proto_register_frame.ett, i32 noundef 10)
  %69 = load i32, ptr @proto_frame, align 4
  %70 = call ptr @expert_register_protocol(i32 noundef %69)
  store ptr %70, ptr %2, align 8
  %71 = load ptr, ptr %2, align 8
  call void @expert_register_field_array(ptr noundef %71, ptr noundef @proto_register_frame.ei, i32 noundef 4)
  %72 = load i32, ptr @proto_frame, align 4
  %73 = call ptr @register_dissector(ptr noundef @.str.311, ptr noundef @dissect_frame, i32 noundef %72)
  %74 = load i32, ptr @proto_frame, align 4
  %75 = call ptr @register_dissector_table(ptr noundef @.str.319, ptr noundef @.str.320, i32 noundef %74, i32 noundef 7, i32 noundef 1)
  store ptr %75, ptr @wtap_encap_dissector_table, align 8
  %76 = load i32, ptr @proto_frame, align 4
  %77 = call ptr @register_dissector_table(ptr noundef @.str.321, ptr noundef @.str.322, i32 noundef %76, i32 noundef 7, i32 noundef 1)
  store ptr %77, ptr @wtap_fts_rec_dissector_table, align 8
  %78 = load i32, ptr @proto_frame, align 4
  %79 = call ptr @register_dissector_table(ptr noundef @.str.323, ptr noundef @.str.324, i32 noundef %78, i32 noundef 7, i32 noundef 1)
  store ptr %79, ptr @block_pen_dissector_table, align 8
  call void @register_capture_dissector_table(ptr noundef @.str.319, ptr noundef @.str.320)
  %80 = load i32, ptr @proto_frame, align 4
  call void @proto_set_cant_toggle(i32 noundef %80)
  %81 = load i32, ptr @proto_frame, align 4
  call void @register_seq_analysis(ptr noundef @.str.325, ptr noundef @.str.326, i32 noundef %81, ptr noundef null, i32 noundef 2, ptr noundef @frame_seq_analysis_packet)
  %82 = load i32, ptr @proto_frame, align 4
  %83 = call ptr @prefs_register_protocol(i32 noundef %82, ptr noundef null)
  store ptr %83, ptr %1, align 8
  %84 = load ptr, ptr %1, align 8
  call void @prefs_register_bool_preference(ptr noundef %84, ptr noundef @.str.327, ptr noundef @.str.328, ptr noundef @.str.329, ptr noundef @show_file_off)
  %85 = load ptr, ptr %1, align 8
  call void @prefs_register_bool_preference(ptr noundef %85, ptr noundef @.str.330, ptr noundef @.str.331, ptr noundef @.str.332, ptr noundef @force_docsis_encap)
  %86 = load ptr, ptr %1, align 8
  call void @prefs_register_bool_preference(ptr noundef %86, ptr noundef @.str.333, ptr noundef @.str.334, ptr noundef @.str.335, ptr noundef @generate_md5_hash)
  %87 = load ptr, ptr %1, align 8
  call void @prefs_register_obsolete_preference(ptr noundef %87, ptr noundef @.str.336)
  %88 = load ptr, ptr %1, align 8
  call void @prefs_register_bool_preference(ptr noundef %88, ptr noundef @.str.337, ptr noundef @.str.338, ptr noundef @.str.339, ptr noundef @generate_bits_field)
  %89 = load ptr, ptr %1, align 8
  call void @prefs_register_bool_preference(ptr noundef %89, ptr noundef @.str.340, ptr noundef @.str.341, ptr noundef @.str.342, ptr noundef @disable_packet_size_limited_in_summary)
  %90 = load ptr, ptr %1, align 8
  call void @prefs_register_uint_preference(ptr noundef %90, ptr noundef @.str.343, ptr noundef @.str.344, ptr noundef @.str.345, i32 noundef 10, ptr noundef @max_comment_lines)
  %91 = call i32 @register_tap(ptr noundef @.str.311)
  store i32 %91, ptr @frame_tap, align 4
  call void @llvm.lifetime.end.p0(i64 8, ptr %2) #9
  call void @llvm.lifetime.end.p0(i64 8, ptr %1) #9
  ret void
}