; Function Attrs: null_pointer_is_valid sspstrong uwtable
define hidden void @proto_register_frame() local_unnamed_addr #0 {
  %1 = load ptr, ptr getelementptr inbounds nuw (i8, ptr @proto_register_frame.hf_encap, i64 32), align 8
  %2 = icmp eq ptr %1, null
  br i1 %2, label %3, label %20

3:                                                ; preds = %0
  %4 = tail call i32 @wtap_get_num_encap_types()
  %5 = tail call ptr @wmem_epan_scope()
  %6 = icmp ugt i32 %4, 2147483646
  %7 = add nuw i32 %4, 1
  %8 = zext nneg i32 %7 to i64
  %9 = shl nuw nsw i64 %8, 4
  %10 = select i1 %6, i64 0, i64 %9
  %11 = tail call noalias ptr @wmem_alloc(ptr noundef %5, i64 noundef %10) #7
  store ptr %11, ptr getelementptr inbounds nuw (i8, ptr @proto_register_frame.hf_encap, i64 32), align 8
  %12 = icmp sgt i32 %4, 0
  br i1 %12, label %.lr.ph.preheader, label %._crit_edge

.lr.ph.preheader:                                 ; preds = %3
  %wide.trip.count = zext nneg i32 %4 to i64
  br label %.lr.ph

.lr.ph:                                           ; preds = %.lr.ph.preheader, %.lr.ph
  %indvars.iv = phi i64 [ 0, %.lr.ph.preheader ], [ %indvars.iv.next, %.lr.ph ]
  %13 = getelementptr %struct._value_string, ptr %11, i64 %indvars.iv
  %14 = trunc nuw nsw i64 %indvars.iv to i32
  store i32 %14, ptr %13, align 8
  %15 = tail call ptr @wtap_encap_description(i32 noundef %14)
  %16 = getelementptr inbounds nuw i8, ptr %13, i64 8
  store ptr %15, ptr %16, align 8
  %indvars.iv.next = add nuw nsw i64 %indvars.iv, 1
  %exitcond.not = icmp eq i64 %indvars.iv.next, %wide.trip.count
  br i1 %exitcond.not, label %._crit_edge, label %.lr.ph, !llvm.loop !6

._crit_edge:                                      ; preds = %.lr.ph, %3
  %17 = sext i32 %4 to i64
  %18 = getelementptr %struct._value_string, ptr %11, i64 %17
  store i32 0, ptr %18, align 8
  %19 = getelementptr inbounds nuw i8, ptr %18, i64 8
  store ptr null, ptr %19, align 8
  br label %20

20:                                               ; preds = %._crit_edge, %0
  %21 = tail call i32 @proto_register_protocol(ptr noundef nonnull @.str.310, ptr noundef nonnull @.str.310, ptr noundef nonnull @.str.311)
  store i32 %21, ptr @proto_frame, align 4
  %22 = tail call i32 @proto_register_protocol_in_name_only(ptr noundef nonnull @.str.312, ptr noundef nonnull @.str.313, ptr noundef nonnull @.str.314, i32 noundef %21, i32 noundef 1)
  store i32 %22, ptr @proto_pkt_comment, align 4
  %23 = tail call i32 @proto_register_protocol(ptr noundef nonnull @.str.315, ptr noundef nonnull @.str.316, ptr noundef nonnull @.str.317)
  store i32 %23, ptr @proto_syscall, align 4
  %24 = tail call i32 @proto_get_id_by_filter_name(ptr noundef nonnull @.str.318)
  store i32 %24, ptr @proto_bblog, align 4
  %25 = load i32, ptr @proto_frame, align 4
  tail call void @proto_register_field_array(i32 noundef %25, ptr noundef nonnull @proto_register_frame.hf, i32 noundef 141)
  %26 = load i32, ptr @proto_frame, align 4
  tail call void @proto_register_field_array(i32 noundef %26, ptr noundef nonnull @proto_register_frame.hf_encap, i32 noundef 1)
  tail call void @proto_register_subtree_array(ptr noundef nonnull @proto_register_frame.ett, i32 noundef 10)
  %27 = load i32, ptr @proto_frame, align 4
  %28 = tail call ptr @expert_register_protocol(i32 noundef %27)
  tail call void @expert_register_field_array(ptr noundef %28, ptr noundef nonnull @proto_register_frame.ei, i32 noundef 4)
  %29 = load i32, ptr @proto_frame, align 4
  %30 = tail call ptr @register_dissector(ptr noundef nonnull @.str.311, ptr noundef nonnull @dissect_frame, i32 noundef %29)
  %31 = load i32, ptr @proto_frame, align 4
  %32 = tail call ptr @register_dissector_table(ptr noundef nonnull @.str.319, ptr noundef nonnull @.str.320, i32 noundef %31, i32 noundef 7, i32 noundef 1)
  store ptr %32, ptr @wtap_encap_dissector_table, align 8
  %33 = load i32, ptr @proto_frame, align 4
  %34 = tail call ptr @register_dissector_table(ptr noundef nonnull @.str.321, ptr noundef nonnull @.str.322, i32 noundef %33, i32 noundef 7, i32 noundef 1)
  store ptr %34, ptr @wtap_fts_rec_dissector_table, align 8
  %35 = load i32, ptr @proto_frame, align 4
  %36 = tail call ptr @register_dissector_table(ptr noundef nonnull @.str.323, ptr noundef nonnull @.str.324, i32 noundef %35, i32 noundef 7, i32 noundef 1)
  store ptr %36, ptr @block_pen_dissector_table, align 8
  tail call void @register_capture_dissector_table(ptr noundef nonnull @.str.319, ptr noundef nonnull @.str.320)
  %37 = load i32, ptr @proto_frame, align 4
  tail call void @proto_set_cant_toggle(i32 noundef %37)
  %38 = load i32, ptr @proto_frame, align 4
  tail call void @register_seq_analysis(ptr noundef nonnull @.str.325, ptr noundef nonnull @.str.326, i32 noundef %38, ptr noundef null, i32 noundef 2, ptr noundef nonnull @frame_seq_analysis_packet)
  %39 = load i32, ptr @proto_frame, align 4
  %40 = tail call ptr @prefs_register_protocol(i32 noundef %39, ptr noundef null)
  tail call void @prefs_register_bool_preference(ptr noundef %40, ptr noundef nonnull @.str.327, ptr noundef nonnull @.str.328, ptr noundef nonnull @.str.329, ptr noundef nonnull @show_file_off)
  tail call void @prefs_register_bool_preference(ptr noundef %40, ptr noundef nonnull @.str.330, ptr noundef nonnull @.str.331, ptr noundef nonnull @.str.332, ptr noundef nonnull @force_docsis_encap)
  tail call void @prefs_register_bool_preference(ptr noundef %40, ptr noundef nonnull @.str.333, ptr noundef nonnull @.str.334, ptr noundef nonnull @.str.335, ptr noundef nonnull @generate_md5_hash)
  tail call void @prefs_register_obsolete_preference(ptr noundef %40, ptr noundef nonnull @.str.336)
  tail call void @prefs_register_bool_preference(ptr noundef %40, ptr noundef nonnull @.str.337, ptr noundef nonnull @.str.338, ptr noundef nonnull @.str.339, ptr noundef nonnull @generate_bits_field)
  tail call void @prefs_register_bool_preference(ptr noundef %40, ptr noundef nonnull @.str.340, ptr noundef nonnull @.str.341, ptr noundef nonnull @.str.342, ptr noundef nonnull @disable_packet_size_limited_in_summary)
  tail call void @prefs_register_uint_preference(ptr noundef %40, ptr noundef nonnull @.str.343, ptr noundef nonnull @.str.344, ptr noundef nonnull @.str.345, i32 noundef 10, ptr noundef nonnull @max_comment_lines)
  %41 = tail call i32 @register_tap(ptr noundef nonnull @.str.311)
  store i32 %41, ptr @frame_tap, align 4
  ret void
}